; Function Attrs: inlinehint mustprogress nounwind uwtable
define internal fastcc void @_ZNSt4pairIPN12_GLOBAL__N_19MockIndexESt10unique_ptrIN5faiss12WorkerThreadESt14default_deleteIS5_EEED2Ev(ptr noundef nonnull align 8 captures(none) dereferenceable(16) %0) unnamed_addr #13 align 2 personality ptr @__gxx_personality_v0 {
  %2 = getelementptr inbounds nuw i8, ptr %0, i64 8
  %3 = load ptr, ptr %2, align 8, !tbaa !241
  %.not.i = icmp eq ptr %3, null
  br i1 %.not.i, label %_ZNSt10unique_ptrIN5faiss12WorkerThreadESt14default_deleteIS1_EED2Ev.exit, label %_ZNKSt14default_deleteIN5faiss12WorkerThreadEEclEPS1_.exit.i

_ZNKSt14default_deleteIN5faiss12WorkerThreadEEclEPS1_.exit.i: ; preds = %1
  tail call void @_ZN5faiss12WorkerThreadD1Ev(ptr noundef nonnull align 8 dereferenceable(184) %3) #30
  tail call void @_ZdlPvm(ptr noundef nonnull %3, i64 noundef 184) #31
  br label %_ZNSt10unique_ptrIN5faiss12WorkerThreadESt14default_deleteIS1_EED2Ev.exit

_ZNSt10unique_ptrIN5faiss12WorkerThreadESt14default_deleteIS1_EED2Ev.exit: ; preds = %1, %_ZNKSt14default_deleteIN5faiss12WorkerThreadEEclEPS1_.exit.i
  store ptr null, ptr %2, align 8, !tbaa !241
  ret void
}